target datalayout = "e-m:e-p270:32:32-p271:32:32-p272:64:64-i64:64-i128:128-f80:128-n8:16:32:64-S128"
target triple = "x86_64-pc-linux-gnu"

%union.pthread_mutex_t = type { %struct.__pthread_mutex_s }
%struct.__pthread_mutex_s = type { i32, i32, i32, i32, i32, i16, i16, %struct.__pthread_internal_list }
%struct.__pthread_internal_list = type { ptr, ptr }
%struct.node_features_ops = type { ptr, ptr, ptr, ptr, ptr, ptr, ptr, ptr, ptr, ptr, ptr, ptr, ptr, ptr, ptr, ptr, ptr }
%struct.timeval = type { i64, i64 }

@g_context_lock = internal global %union.pthread_mutex_t zeroinitializer, align 8
@.str.1 = private unnamed_addr constant [29 x i8] c"%s: pthread_mutex_lock(): %m\00", align 1
@g_context_cnt = internal global i32 -1, align 4
@ops = internal global ptr null, align 8
@.str.7 = private unnamed_addr constant [31 x i8] c"%s: pthread_mutex_unlock(): %m\00", align 1
@__func__.node_features_g_node_power = private unnamed_addr constant [27 x i8] c"node_features_g_node_power\00", align 1

; Function Attrs: nounwind uwtable
define dso_local zeroext i1 @node_features_g_node_power() #0 {
  %1 = alloca %struct.timeval, align 8
  %2 = alloca %struct.timeval, align 8
  %3 = alloca [20 x i8], align 16
  %4 = alloca i64, align 8
  %5 = alloca i8, align 1
  %6 = alloca i32, align 4
  %7 = alloca i32, align 4
  %8 = alloca i32, align 4
  call void @llvm.lifetime.start.p0(i64 16, ptr %1) #7
  call void @llvm.lifetime.start.p0(i64 16, ptr %2) #7
  call void @llvm.lifetime.start.p0(i64 20, ptr %3) #7
  call void @llvm.memset.p0.i64(ptr align 16 %3, i8 0, i64 20, i1 false)
  call void @llvm.lifetime.start.p0(i64 8, ptr %4) #7
  call void @llvm.lifetime.start.p0(i64 1, ptr %5) #7
  store i8 0, ptr %5, align 1
  call void @llvm.lifetime.start.p0(i64 4, ptr %6) #7
  %9 = call i32 @gettimeofday(ptr noundef %1, ptr noundef null) #7
  br label %10

10:                                               ; preds = %0
  call void @llvm.lifetime.start.p0(i64 4, ptr %7) #7
  %11 = call i32 @pthread_mutex_lock(ptr noundef @g_context_lock) #7
  store i32 %11, ptr %7, align 4
  %12 = load i32, ptr %7, align 4
  %13 = icmp ne i32 %12, 0
  br i1 %13, label %14, label %17

14:                                               ; preds = %10
  %15 = load i32, ptr %7, align 4
  %16 = call ptr @__errno_location() #8
  store i32 %15, ptr %16, align 4
  call void (ptr, ...) @fatal_abort(ptr noundef @.str.1, ptr noundef @__func__.node_features_g_node_power) #9
  unreachable

17:                                               ; preds = %10
  call void @llvm.lifetime.end.p0(i64 4, ptr %7) #7
  br label %18

18:                                               ; preds = %17
  br label %19

19:                                               ; preds = %18
  store i32 0, ptr %6, align 4
  br label %20

20:                                               ; preds = %37, %19
  %21 = load i32, ptr %6, align 4
  %22 = load i32, ptr @g_context_cnt, align 4
  %23 = icmp slt i32 %21, %22
  br i1 %23, label %24, label %40

24:                                               ; preds = %20
  %25 = load ptr, ptr @ops, align 8
  %26 = load i32, ptr %6, align 4
  %27 = sext i32 %26 to i64
  %28 = getelementptr inbounds %struct.node_features_ops, ptr %25, i64 %27
  %29 = getelementptr inbounds nuw %struct.node_features_ops, ptr %28, i32 0, i32 7
  %30 = load ptr, ptr %29, align 8
  %31 = call zeroext i1 %30()
  %32 = zext i1 %31 to i8
  store i8 %32, ptr %5, align 1
  %33 = load i8, ptr %5, align 1, !range !12, !noundef !13
  %34 = trunc i8 %33 to i1
  br i1 %34, label %35, label %36

35:                                               ; preds = %24
  br label %40

36:                                               ; preds = %24
  br label %37

37:                                               ; preds = %36
  %38 = load i32, ptr %6, align 4
  %39 = add nsw i32 %38, 1
  store i32 %39, ptr %6, align 4
  br label %20, !llvm.loop !21

40:                                               ; preds = %35, %20
  br label %41

41:                                               ; preds = %40
  call void @llvm.lifetime.start.p0(i64 4, ptr %8) #7
  %42 = call i32 @pthread_mutex_unlock(ptr noundef @g_context_lock) #7
  store i32 %42, ptr %8, align 4
  %43 = load i32, ptr %8, align 4
  %44 = icmp ne i32 %43, 0
  br i1 %44, label %45, label %48

45:                                               ; preds = %41
  %46 = load i32, ptr %8, align 4
  %47 = call ptr @__errno_location() #8
  store i32 %46, ptr %47, align 4
  call void (ptr, ...) @fatal_abort(ptr noundef @.str.7, ptr noundef @__func__.node_features_g_node_power) #9
  unreachable

48:                                               ; preds = %41
  call void @llvm.lifetime.end.p0(i64 4, ptr %8) #7
  br label %49

49:                                               ; preds = %48
  br label %50

50:                                               ; preds = %49
  br label %51

51:                                               ; preds = %50
  %52 = call i32 @gettimeofday(ptr noundef %2, ptr noundef null) #7
  %53 = getelementptr inbounds [20 x i8], ptr %3, i64 0, i64 0
  call void @slurm_diff_tv_str(ptr noundef %1, ptr noundef %2, ptr noundef %53, i32 noundef 20, ptr noundef @__func__.node_features_g_node_power, i64 noundef 0, ptr noundef %4)
  br label %54

54:                                               ; preds = %51
  br label %55

55:                                               ; preds = %54
  %56 = load i8, ptr %5, align 1, !range !12, !noundef !13
  %57 = trunc i8 %56 to i1
  call void @llvm.lifetime.end.p0(i64 4, ptr %6) #7
  call void @llvm.lifetime.end.p0(i64 1, ptr %5) #7
  call void @llvm.lifetime.end.p0(i64 8, ptr %4) #7
  call void @llvm.lifetime.end.p0(i64 20, ptr %3) #7
  call void @llvm.lifetime.end.p0(i64 16, ptr %2) #7
  call void @llvm.lifetime.end.p0(i64 16, ptr %1) #7
  ret i1 %57
}